; Function Attrs: nounwind uwtable
define ptr @l_Lean_Core_viewBinders___rarg(ptr noundef %0, ptr noundef %1, ptr noundef %2, ptr noundef %3) #0 {
  %5 = getelementptr inbounds nuw i8, ptr %0, i64 16
  %6 = load ptr, ptr %5, align 8, !tbaa !9
  %7 = ptrtoint ptr %6 to i64
  %8 = and i64 %7, 1
  %.not = icmp eq i64 %8, 0
  br i1 %.not, label %9, label %lean_inc.exit27

9:                                                ; preds = %4
  %.val.i = load i32, ptr %6, align 4, !tbaa !4
  %10 = icmp sgt i32 %.val.i, 0
  br i1 %10, label %11, label %13, !prof !13

11:                                               ; preds = %9
  %12 = add nuw i32 %.val.i, 1
  store i32 %12, ptr %6, align 4, !tbaa !4
  br label %15

13:                                               ; preds = %9
  %.not.i = icmp eq i32 %.val.i, 0
  br i1 %.not.i, label %lean_inc.exit27, label %14

14:                                               ; preds = %13
  tail call void @lean_inc_ref_cold(ptr noundef nonnull %6) #5
  %.val.i29.pr = load i32, ptr %6, align 4, !tbaa !4
  br label %15

15:                                               ; preds = %14, %11
  %.val.i29 = phi i32 [ %.val.i29.pr, %14 ], [ %12, %11 ]
  %16 = icmp sgt i32 %.val.i29, 0
  br i1 %16, label %17, label %19, !prof !18

17:                                               ; preds = %15
  %18 = add nuw i32 %.val.i29, 1
  store i32 %18, ptr %6, align 4, !tbaa !4
  br label %lean_inc.exit27

19:                                               ; preds = %15
  %.not.i30 = icmp eq i32 %.val.i29, 0
  br i1 %.not.i30, label %lean_inc.exit27, label %20

20:                                               ; preds = %19
  tail call void @lean_inc_ref_cold(ptr noundef nonnull %6) #5
  br label %lean_inc.exit27

lean_inc.exit27:                                  ; preds = %13, %20, %19, %17, %4
  %21 = ptrtoint ptr %0 to i64
  %22 = and i64 %21, 1
  %.not44 = icmp eq i64 %22, 0
  br i1 %.not44, label %23, label %lean_inc.exit26

23:                                               ; preds = %lean_inc.exit27
  %.val.i32 = load i32, ptr %0, align 4, !tbaa !4
  %24 = icmp sgt i32 %.val.i32, 0
  br i1 %24, label %25, label %27, !prof !13

25:                                               ; preds = %23
  %26 = add nuw i32 %.val.i32, 1
  store i32 %26, ptr %0, align 4, !tbaa !4
  br label %lean_inc.exit26

27:                                               ; preds = %23
  %.not.i33 = icmp eq i32 %.val.i32, 0
  br i1 %.not.i33, label %lean_inc.exit26, label %28

28:                                               ; preds = %27
  tail call void @lean_inc_ref_cold(ptr noundef nonnull %0) #5
  br label %lean_inc.exit26

lean_inc.exit26:                                  ; preds = %28, %27, %25, %lean_inc.exit27
  tail call void @lean_inc_heartbeat() #5
  %29 = tail call noalias ptr @mi_malloc_small(i64 noundef 48) #5
  %30 = icmp eq ptr %29, null
  br i1 %30, label %31, label %lean_alloc_closure.exit

31:                                               ; preds = %lean_inc.exit26
  tail call void @lean_internal_panic_out_of_memory() #6
  unreachable

lean_alloc_closure.exit:                          ; preds = %lean_inc.exit26
  %32 = getelementptr inbounds nuw i8, ptr %29, i64 4
  store i32 1, ptr %29, align 4, !tbaa !4
  store i32 -184549328, ptr %32, align 4
  %33 = getelementptr inbounds nuw i8, ptr %29, i64 8
  store ptr @l_Lean_Core_viewBinders___rarg___lambda__2, ptr %33, align 8, !tbaa !9
  %34 = getelementptr inbounds nuw i8, ptr %29, i64 16
  store i16 5, ptr %34, align 8, !tbaa !11
  %35 = getelementptr inbounds nuw i8, ptr %29, i64 18
  store i16 3, ptr %35, align 2, !tbaa !11
  %36 = getelementptr inbounds nuw i8, ptr %29, i64 24
  store ptr %0, ptr %36, align 8, !tbaa !9
  %37 = getelementptr inbounds nuw i8, ptr %29, i64 32
  store ptr %1, ptr %37, align 8, !tbaa !9
  %38 = getelementptr inbounds nuw i8, ptr %29, i64 40
  store ptr %6, ptr %38, align 8, !tbaa !9
  %39 = load ptr, ptr @l___private_Lean_Meta_ExprLens_0__Lean_Meta_viewAux___rarg___lambda__3___closed__1, align 8, !tbaa !9
  tail call void @lean_inc_heartbeat() #5
  %40 = tail call noalias ptr @mi_malloc_small(i64 noundef 24) #5
  %41 = icmp eq ptr %40, null
  br i1 %41, label %42, label %lean_alloc_ctor.exit

42:                                               ; preds = %lean_alloc_closure.exit
  tail call void @lean_internal_panic_out_of_memory() #6
  unreachable

lean_alloc_ctor.exit:                             ; preds = %lean_alloc_closure.exit
  %43 = getelementptr inbounds nuw i8, ptr %40, i64 4
  store i32 1, ptr %40, align 4, !tbaa !4
  store i32 131096, ptr %43, align 4
  %44 = getelementptr inbounds nuw i8, ptr %40, i64 8
  store ptr %39, ptr %44, align 8, !tbaa !9
  %45 = getelementptr inbounds nuw i8, ptr %40, i64 16
  store ptr %3, ptr %45, align 8, !tbaa !9
  %46 = load ptr, ptr @l_Lean_Core_viewBinders___rarg___closed__2, align 8, !tbaa !9
  br i1 %.not44, label %47, label %lean_inc.exit

47:                                               ; preds = %lean_alloc_ctor.exit
  %.val.i35 = load i32, ptr %0, align 4, !tbaa !4
  %48 = icmp sgt i32 %.val.i35, 0
  br i1 %48, label %49, label %51, !prof !13

49:                                               ; preds = %47
  %50 = add nuw i32 %.val.i35, 1
  store i32 %50, ptr %0, align 4, !tbaa !4
  br label %lean_inc.exit

51:                                               ; preds = %47
  %.not.i36 = icmp eq i32 %.val.i35, 0
  br i1 %.not.i36, label %lean_inc.exit, label %52

52:                                               ; preds = %51
  tail call void @lean_inc_ref_cold(ptr noundef nonnull %0) #5
  br label %lean_inc.exit

lean_inc.exit:                                    ; preds = %52, %51, %49, %lean_alloc_ctor.exit
  %53 = tail call ptr @l_Lean_SubExpr_Pos_foldlM___at_Lean_Core_viewBinders___spec__1___rarg(ptr noundef nonnull %0, ptr noundef %46, ptr noundef nonnull %29, ptr noundef nonnull %40, ptr noundef %2)
  tail call void @lean_inc_heartbeat() #5
  %54 = tail call noalias ptr @mi_malloc_small(i64 noundef 32) #5
  %55 = icmp eq ptr %54, null
  br i1 %55, label %56, label %lean_alloc_closure.exit38

56:                                               ; preds = %lean_inc.exit
  tail call void @lean_internal_panic_out_of_memory() #6
  unreachable

lean_alloc_closure.exit38:                        ; preds = %lean_inc.exit
  %57 = getelementptr inbounds nuw i8, ptr %54, i64 4
  store i32 1, ptr %54, align 4, !tbaa !4
  store i32 -184549344, ptr %57, align 4
  %58 = getelementptr inbounds nuw i8, ptr %54, i64 8
  store ptr @l_Lean_Core_viewBinders___rarg___lambda__3, ptr %58, align 8, !tbaa !9
  %59 = getelementptr inbounds nuw i8, ptr %54, i64 16
  store i16 2, ptr %59, align 8, !tbaa !11
  %60 = getelementptr inbounds nuw i8, ptr %54, i64 18
  store i16 1, ptr %60, align 2, !tbaa !11
  %61 = getelementptr inbounds nuw i8, ptr %54, i64 24
  store ptr %0, ptr %61, align 8, !tbaa !9
  %62 = tail call ptr @lean_apply_4(ptr noundef %6, ptr noundef nonnull inttoptr (i64 1 to ptr), ptr noundef nonnull inttoptr (i64 1 to ptr), ptr noundef %53, ptr noundef nonnull %54) #5
  ret ptr %62
}